target datalayout = "e-m:e-p270:32:32-p271:32:32-p272:64:64-i64:64-i128:128-f80:128-n8:16:32:64-S128"
target triple = "x86_64-pc-linux-gnu"

%struct._header_field_info = type { ptr, ptr, i32, i32, ptr, i64, ptr, i32, i32, i32, i32, ptr }
%struct._proto_node = type { ptr, ptr, ptr, ptr, ptr, ptr, ptr }
%struct.field_info = type { ptr, i32, i32, i32, i32, i32, i32, ptr, ptr, ptr, i32, i32 }
%struct.decoded_data_t = type { i32, ptr }

; Function Attrs: nounwind null_pointer_is_valid sspstrong uwtable
define internal zeroext i1 @check_for_undecoded(ptr noundef %0, ptr noundef %1) #3 {
  %3 = alloca ptr, align 8
  %4 = alloca ptr, align 8
  %5 = alloca ptr, align 8
  %6 = alloca ptr, align 8
  %7 = alloca i32, align 4
  %8 = alloca i32, align 4
  %9 = alloca i32, align 4
  store ptr %0, ptr %3, align 8
  store ptr %1, ptr %4, align 8
  call void @llvm.lifetime.start.p0(i64 8, ptr %5) #24
  %10 = load ptr, ptr %3, align 8
  %11 = getelementptr inbounds nuw %struct._proto_node, ptr %10, i32 0, i32 5
  %12 = load ptr, ptr %11, align 8
  store ptr %12, ptr %5, align 8
  call void @llvm.lifetime.start.p0(i64 8, ptr %6) #24
  %13 = load ptr, ptr %4, align 8
  store ptr %13, ptr %6, align 8
  call void @llvm.lifetime.start.p0(i64 4, ptr %7) #24
  call void @llvm.lifetime.start.p0(i64 4, ptr %8) #24
  call void @llvm.lifetime.start.p0(i64 4, ptr %9) #24
  %14 = load ptr, ptr %5, align 8
  %15 = icmp ne ptr %14, null
  br i1 %15, label %16, label %66

16:                                               ; preds = %2
  %17 = load ptr, ptr %5, align 8
  %18 = getelementptr inbounds nuw %struct.field_info, ptr %17, i32 0, i32 0
  %19 = load ptr, ptr %18, align 8
  %20 = getelementptr inbounds nuw %struct._header_field_info, ptr %19, i32 0, i32 2
  %21 = load i32, ptr %20, align 8
  %22 = icmp ne i32 %21, 1
  br i1 %22, label %23, label %66

23:                                               ; preds = %16
  %24 = load ptr, ptr %5, align 8
  %25 = getelementptr inbounds nuw %struct.field_info, ptr %24, i32 0, i32 1
  %26 = load i32, ptr %25, align 8
  store i32 %26, ptr %7, align 4
  br label %27

27:                                               ; preds = %62, %23
  %28 = load i32, ptr %7, align 4
  %29 = load ptr, ptr %5, align 8
  %30 = getelementptr inbounds nuw %struct.field_info, ptr %29, i32 0, i32 1
  %31 = load i32, ptr %30, align 8
  %32 = load ptr, ptr %5, align 8
  %33 = getelementptr inbounds nuw %struct.field_info, ptr %32, i32 0, i32 2
  %34 = load i32, ptr %33, align 4
  %35 = add i32 %31, %34
  %36 = icmp slt i32 %28, %35
  br i1 %36, label %37, label %43

37:                                               ; preds = %27
  %38 = load i32, ptr %7, align 4
  %39 = load ptr, ptr %6, align 8
  %40 = getelementptr inbounds nuw %struct.decoded_data_t, ptr %39, i32 0, i32 0
  %41 = load i32, ptr %40, align 8
  %42 = icmp slt i32 %38, %41
  br label %43

43:                                               ; preds = %37, %27
  %44 = phi i1 [ false, %27 ], [ %42, %37 ]
  br i1 %44, label %45, label %65

45:                                               ; preds = %43
  %46 = load i32, ptr %7, align 4
  %47 = sdiv i32 %46, 8
  store i32 %47, ptr %8, align 4
  %48 = load i32, ptr %7, align 4
  %49 = srem i32 %48, 8
  store i32 %49, ptr %9, align 4
  %50 = load i32, ptr %9, align 4
  %51 = shl i32 1, %50
  %52 = load ptr, ptr %6, align 8
  %53 = getelementptr inbounds nuw %struct.decoded_data_t, ptr %52, i32 0, i32 1
  %54 = load ptr, ptr %53, align 8
  %55 = load i32, ptr %8, align 4
  %56 = zext i32 %55 to i64
  %57 = getelementptr i8, ptr %54, i64 %56
  %58 = load i8, ptr %57, align 1
  %59 = sext i8 %58 to i32
  %60 = or i32 %59, %51
  %61 = trunc i32 %60 to i8
  store i8 %61, ptr %57, align 1
  br label %62

62:                                               ; preds = %45
  %63 = load i32, ptr %7, align 4
  %64 = add i32 %63, 1
  store i32 %64, ptr %7, align 4
  br label %27, !llvm.loop !54

65:                                               ; preds = %43
  br label %66

66:                                               ; preds = %65, %16, %2
  call void @llvm.lifetime.end.p0(i64 4, ptr %9) #24
  call void @llvm.lifetime.end.p0(i64 4, ptr %8) #24
  call void @llvm.lifetime.end.p0(i64 4, ptr %7) #24
  call void @llvm.lifetime.end.p0(i64 8, ptr %6) #24
  call void @llvm.lifetime.end.p0(i64 8, ptr %5) #24
  ret i1 false
}