; Function Attrs: nofree norecurse nosync nounwind null_pointer_is_valid sspstrong memory(readwrite, inaccessiblemem: none) uwtable
define internal noundef zeroext i1 @check_for_undecoded(ptr noundef readonly captures(none) %0, ptr noundef readonly captures(none) %1) #25 {
  %3 = getelementptr inbounds nuw i8, ptr %0, i64 40
  %4 = load ptr, ptr %3, align 8
  %.not = icmp eq ptr %4, null
  br i1 %.not, label %.critedge, label %5

5:                                                ; preds = %2
  %6 = load ptr, ptr %4, align 8
  %7 = getelementptr inbounds nuw i8, ptr %6, i64 16
  %8 = load i32, ptr %7, align 8
  %.not16 = icmp eq i32 %8, 1
  br i1 %.not16, label %.critedge, label %9

9:                                                ; preds = %5
  %10 = getelementptr inbounds nuw i8, ptr %4, i64 8
  %11 = load i32, ptr %10, align 8
  %12 = getelementptr inbounds nuw i8, ptr %4, i64 12
  %13 = load i32, ptr %12, align 4
  %14 = add i32 %13, %11
  %15 = icmp slt i32 %11, %14
  br i1 %15, label %.lr.ph, label %.critedge

.lr.ph:                                           ; preds = %9
  %16 = getelementptr inbounds nuw i8, ptr %1, i64 8
  br label %17

17:                                               ; preds = %.lr.ph, %20
  %.017 = phi i32 [ %11, %.lr.ph ], [ %30, %20 ]
  %18 = load i32, ptr %1, align 8
  %19 = icmp slt i32 %.017, %18
  br i1 %19, label %20, label %.critedge

20:                                               ; preds = %17
  %21 = sdiv i32 %.017, 8
  %22 = and i32 %.017, 7
  %23 = shl nuw nsw i32 1, %22
  %24 = load ptr, ptr %16, align 8
  %25 = zext i32 %21 to i64
  %26 = getelementptr i8, ptr %24, i64 %25
  %27 = load i8, ptr %26, align 1
  %28 = trunc nuw i32 %23 to i8
  %29 = or i8 %27, %28
  store i8 %29, ptr %26, align 1
  %30 = add nsw i32 %.017, 1
  %31 = load i32, ptr %10, align 8
  %32 = load i32, ptr %12, align 4
  %33 = add i32 %32, %31
  %34 = icmp slt i32 %30, %33
  br i1 %34, label %17, label %.critedge, !llvm.loop !61

.critedge:                                        ; preds = %20, %17, %9, %5, %2
  ret i1 false
}